target datalayout = "e-m:e-p270:32:32-p271:32:32-p272:64:64-i64:64-i128:128-f80:128-n8:16:32:64-S128"
target triple = "x86_64-pc-linux-gnu"

%struct.IDAMemRec = type { double, ptr, ptr, i32, double, double, ptr, i32, ptr, ptr, i32, ptr, ptr, i32, i32, double, double, ptr, i32, i32, i32, ptr, ptr, i32, ptr, ptr, ptr, i32, double, i32, i32, double, ptr, ptr, i32, ptr, ptr, i32, i32, i32, double, ptr, ptr, [6 x ptr], [6 x double], [6 x double], [6 x double], [6 x double], [6 x double], ptr, ptr, ptr, ptr, ptr, ptr, ptr, ptr, ptr, ptr, ptr, ptr, ptr, ptr, ptr, [6 x ptr], ptr, ptr, ptr, ptr, [6 x ptr], ptr, ptr, ptr, ptr, ptr, ptr, ptr, ptr, ptr, ptr, ptr, ptr, ptr, ptr, [6 x ptr], ptr, ptr, ptr, ptr, ptr, double, ptr, ptr, i32, i32, i32, i32, i32, i32, i32, double, double, double, i32, double, i32, i32, i32, i32, double, double, double, double, double, double, double, double, double, double, double, double, double, double, i32, i32, i32, i32, i32, i64, double, i32, i64, i64, i64, i64, i64, i64, i64, i64, i64, i64, i64, i64, i64, i64, i64, i64, i64, i64, i64, i64, i64, i64, i64, i64, ptr, ptr, ptr, i32, i32, i32, i32, i32, i32, i32, i32, i32, i32, i32, i32, i32, ptr, ptr, ptr, ptr, ptr, ptr, i32, i32, i32, i32, i32, i32, double, double, double, ptr, i32, ptr, ptr, double, double, double, ptr, ptr, ptr, double, double, i32, i32, i64, ptr, i32, i32, ptr, i32 }
%struct.IDAadjMemRec = type { double, double, i32, i32, double, ptr, i32, ptr, i32, ptr, ptr, i32, i64, ptr, i64, i32, ptr, ptr, ptr, ptr, i32, i32, i32, i32, i32, [6 x ptr], [6 x ptr], [6 x double], ptr, ptr, ptr, ptr, i64 }
%struct.IDABMemRec = type { i32, double, ptr, i32, i32, ptr, ptr, ptr, ptr, ptr, ptr, ptr, ptr, ptr, double, ptr, ptr, ptr }

@.str = private unnamed_addr constant [5 x i8] c"IDAA\00", align 1
@.str.2 = private unnamed_addr constant [24 x i8] c"ida_mem = NULL illegal.\00", align 1
@.str.7 = private unnamed_addr constant [51 x i8] c"Illegal attempt to call before calling IDAadjInit.\00", align 1
@.str.14 = private unnamed_addr constant [9 x i8] c"IDAInitB\00", align 1
@.str.15 = private unnamed_addr constant [88 x i8] c"The initial time tB0 is outside the interval over which the forward problem was solved.\00", align 1
@.str.16 = private unnamed_addr constant [25 x i8] c"Illegal value for which.\00", align 1

; Function Attrs: nounwind uwtable
define i32 @IDAInitB(ptr noundef %0, i32 noundef %1, ptr noundef %2, double noundef %3, ptr noundef %4, ptr noundef %5) #0 {
  %7 = alloca i32, align 4
  %8 = alloca ptr, align 8
  %9 = alloca i32, align 4
  %10 = alloca ptr, align 8
  %11 = alloca double, align 8
  %12 = alloca ptr, align 8
  %13 = alloca ptr, align 8
  %14 = alloca ptr, align 8
  %15 = alloca ptr, align 8
  %16 = alloca ptr, align 8
  %17 = alloca ptr, align 8
  %18 = alloca i32, align 4
  %19 = alloca i32, align 4
  store ptr %0, ptr %8, align 8, !tbaa !3
  store i32 %1, ptr %9, align 4, !tbaa !9
  store ptr %2, ptr %10, align 8, !tbaa !3
  store double %3, ptr %11, align 8, !tbaa !73
  store ptr %4, ptr %12, align 8, !tbaa !74
  store ptr %5, ptr %13, align 8, !tbaa !74
  call void @llvm.lifetime.start.p0(i64 8, ptr %14) #6
  call void @llvm.lifetime.start.p0(i64 8, ptr %15) #6
  call void @llvm.lifetime.start.p0(i64 8, ptr %16) #6
  call void @llvm.lifetime.start.p0(i64 8, ptr %17) #6
  call void @llvm.lifetime.start.p0(i64 4, ptr %18) #6
  %20 = load ptr, ptr %8, align 8, !tbaa !3
  %21 = icmp eq ptr %20, null
  br i1 %21, label %22, label %23

22:                                               ; preds = %6
  call void (ptr, i32, ptr, ptr, ptr, ...) @IDAProcessError(ptr noundef null, i32 noundef -20, ptr noundef @.str, ptr noundef @.str.14, ptr noundef @.str.2)
  store i32 -20, ptr %7, align 4
  store i32 1, ptr %19, align 4
  br label %113

23:                                               ; preds = %6
  %24 = load ptr, ptr %8, align 8, !tbaa !3
  store ptr %24, ptr %15, align 8, !tbaa !11
  %25 = load ptr, ptr %15, align 8, !tbaa !11
  %26 = getelementptr inbounds nuw %struct.IDAMemRec, ptr %25, i32 0, i32 205
  %27 = load i32, ptr %26, align 8, !tbaa !51
  %28 = icmp eq i32 %27, 0
  br i1 %28, label %29, label %31

29:                                               ; preds = %23
  %30 = load ptr, ptr %15, align 8, !tbaa !11
  call void (ptr, i32, ptr, ptr, ptr, ...) @IDAProcessError(ptr noundef %30, i32 noundef -101, ptr noundef @.str, ptr noundef @.str.14, ptr noundef @.str.7)
  store i32 -101, ptr %7, align 4
  store i32 1, ptr %19, align 4
  br label %113

31:                                               ; preds = %23
  %32 = load ptr, ptr %15, align 8, !tbaa !11
  %33 = getelementptr inbounds nuw %struct.IDAMemRec, ptr %32, i32 0, i32 204
  %34 = load ptr, ptr %33, align 8, !tbaa !15
  store ptr %34, ptr %14, align 8, !tbaa !13
  %35 = load double, ptr %11, align 8, !tbaa !73
  %36 = load ptr, ptr %14, align 8, !tbaa !13
  %37 = getelementptr inbounds nuw %struct.IDAadjMemRec, ptr %36, i32 0, i32 0
  %38 = load double, ptr %37, align 8, !tbaa !94
  %39 = fcmp olt double %35, %38
  br i1 %39, label %46, label %40

40:                                               ; preds = %31
  %41 = load double, ptr %11, align 8, !tbaa !73
  %42 = load ptr, ptr %14, align 8, !tbaa !13
  %43 = getelementptr inbounds nuw %struct.IDAadjMemRec, ptr %42, i32 0, i32 1
  %44 = load double, ptr %43, align 8, !tbaa !93
  %45 = fcmp ogt double %41, %44
  br i1 %45, label %46, label %48

46:                                               ; preds = %40, %31
  %47 = load ptr, ptr %15, align 8, !tbaa !11
  call void (ptr, i32, ptr, ptr, ptr, ...) @IDAProcessError(ptr noundef %47, i32 noundef -104, ptr noundef @.str, ptr noundef @.str.14, ptr noundef @.str.15)
  store i32 -104, ptr %7, align 4
  store i32 1, ptr %19, align 4
  br label %113

48:                                               ; preds = %40
  %49 = load i32, ptr %9, align 4, !tbaa !9
  %50 = load ptr, ptr %14, align 8, !tbaa !13
  %51 = getelementptr inbounds nuw %struct.IDAadjMemRec, ptr %50, i32 0, i32 6
  %52 = load i32, ptr %51, align 8, !tbaa !46
  %53 = icmp sge i32 %49, %52
  br i1 %53, label %54, label %56

54:                                               ; preds = %48
  %55 = load ptr, ptr %15, align 8, !tbaa !11
  call void (ptr, i32, ptr, ptr, ptr, ...) @IDAProcessError(ptr noundef %55, i32 noundef -22, ptr noundef @.str, ptr noundef @.str.14, ptr noundef @.str.16)
  store i32 -22, ptr %7, align 4
  store i32 1, ptr %19, align 4
  br label %113

56:                                               ; preds = %48
  %57 = load ptr, ptr %14, align 8, !tbaa !13
  %58 = getelementptr inbounds nuw %struct.IDAadjMemRec, ptr %57, i32 0, i32 5
  %59 = load ptr, ptr %58, align 8, !tbaa !44
  store ptr %59, ptr %16, align 8, !tbaa !132
  br label %60

60:                                               ; preds = %70, %56
  %61 = load ptr, ptr %16, align 8, !tbaa !132
  %62 = icmp ne ptr %61, null
  br i1 %62, label %63, label %74

63:                                               ; preds = %60
  %64 = load i32, ptr %9, align 4, !tbaa !9
  %65 = load ptr, ptr %16, align 8, !tbaa !132
  %66 = getelementptr inbounds nuw %struct.IDABMemRec, ptr %65, i32 0, i32 0
  %67 = load i32, ptr %66, align 8, !tbaa !192
  %68 = icmp eq i32 %64, %67
  br i1 %68, label %69, label %70

69:                                               ; preds = %63
  br label %74

70:                                               ; preds = %63
  %71 = load ptr, ptr %16, align 8, !tbaa !132
  %72 = getelementptr inbounds nuw %struct.IDABMemRec, ptr %71, i32 0, i32 17
  %73 = load ptr, ptr %72, align 8, !tbaa !133
  store ptr %73, ptr %16, align 8, !tbaa !132
  br label %60, !llvm.loop !202

74:                                               ; preds = %69, %60
  %75 = load ptr, ptr %16, align 8, !tbaa !132
  %76 = getelementptr inbounds nuw %struct.IDABMemRec, ptr %75, i32 0, i32 2
  %77 = load ptr, ptr %76, align 8, !tbaa !135
  store ptr %77, ptr %17, align 8, !tbaa !3
  %78 = load ptr, ptr %17, align 8, !tbaa !3
  %79 = load double, ptr %11, align 8, !tbaa !73
  %80 = load ptr, ptr %12, align 8, !tbaa !74
  %81 = load ptr, ptr %13, align 8, !tbaa !74
  %82 = call i32 @IDAInit(ptr noundef %78, ptr noundef @IDAAres, double noundef %79, ptr noundef %80, ptr noundef %81)
  store i32 %82, ptr %18, align 4, !tbaa !9
  %83 = load i32, ptr %18, align 4, !tbaa !9
  %84 = icmp ne i32 0, %83
  br i1 %84, label %85, label %87

85:                                               ; preds = %74
  %86 = load i32, ptr %18, align 4, !tbaa !9
  store i32 %86, ptr %7, align 4
  store i32 1, ptr %19, align 4
  br label %113

87:                                               ; preds = %74
  %88 = load ptr, ptr %10, align 8, !tbaa !3
  %89 = load ptr, ptr %16, align 8, !tbaa !132
  %90 = getelementptr inbounds nuw %struct.IDABMemRec, ptr %89, i32 0, i32 5
  store ptr %88, ptr %90, align 8, !tbaa !193
  %91 = load ptr, ptr %16, align 8, !tbaa !132
  %92 = getelementptr inbounds nuw %struct.IDABMemRec, ptr %91, i32 0, i32 3
  store i32 0, ptr %92, align 8, !tbaa !200
  %93 = load double, ptr %11, align 8, !tbaa !73
  %94 = load ptr, ptr %16, align 8, !tbaa !132
  %95 = getelementptr inbounds nuw %struct.IDABMemRec, ptr %94, i32 0, i32 1
  store double %93, ptr %95, align 8, !tbaa !203
  %96 = load ptr, ptr %12, align 8, !tbaa !74
  %97 = call ptr @N_VClone(ptr noundef %96)
  %98 = load ptr, ptr %16, align 8, !tbaa !132
  %99 = getelementptr inbounds nuw %struct.IDABMemRec, ptr %98, i32 0, i32 15
  store ptr %97, ptr %99, align 8, !tbaa !138
  %100 = load ptr, ptr %12, align 8, !tbaa !74
  %101 = call ptr @N_VClone(ptr noundef %100)
  %102 = load ptr, ptr %16, align 8, !tbaa !132
  %103 = getelementptr inbounds nuw %struct.IDABMemRec, ptr %102, i32 0, i32 16
  store ptr %101, ptr %103, align 8, !tbaa !139
  %104 = load ptr, ptr %12, align 8, !tbaa !74
  %105 = load ptr, ptr %16, align 8, !tbaa !132
  %106 = getelementptr inbounds nuw %struct.IDABMemRec, ptr %105, i32 0, i32 15
  %107 = load ptr, ptr %106, align 8, !tbaa !138
  call void @N_VScale(double noundef 1.000000e+00, ptr noundef %104, ptr noundef %107)
  %108 = load ptr, ptr %13, align 8, !tbaa !74
  %109 = load ptr, ptr %16, align 8, !tbaa !132
  %110 = getelementptr inbounds nuw %struct.IDABMemRec, ptr %109, i32 0, i32 16
  %111 = load ptr, ptr %110, align 8, !tbaa !139
  call void @N_VScale(double noundef 1.000000e+00, ptr noundef %108, ptr noundef %111)
  %112 = load i32, ptr %18, align 4, !tbaa !9
  store i32 %112, ptr %7, align 4
  store i32 1, ptr %19, align 4
  br label %113

113:                                              ; preds = %87, %85, %54, %46, %29, %22
  call void @llvm.lifetime.end.p0(i64 4, ptr %18) #6
  call void @llvm.lifetime.end.p0(i64 8, ptr %17) #6
  call void @llvm.lifetime.end.p0(i64 8, ptr %16) #6
  call void @llvm.lifetime.end.p0(i64 8, ptr %15) #6
  call void @llvm.lifetime.end.p0(i64 8, ptr %14) #6
  %114 = load i32, ptr %7, align 4
  ret i32 %114
}