; Function Attrs: nounwind uwtable
define i32 @IDAInitB(ptr noundef %0, i32 noundef %1, ptr noundef %2, double noundef %3, ptr noundef %4, ptr noundef %5) local_unnamed_addr #0 {
  %7 = icmp eq ptr %0, null
  br i1 %7, label %8, label %9

8:                                                ; preds = %6
  tail call void (ptr, i32, ptr, ptr, ptr, ...) @IDAProcessError(ptr noundef null, i32 noundef -20, ptr noundef nonnull @.str, ptr noundef nonnull @.str.14, ptr noundef nonnull @.str.2) #9
  br label %46

9:                                                ; preds = %6
  %10 = getelementptr inbounds nuw i8, ptr %0, i64 1824
  %11 = load i32, ptr %10, align 8, !tbaa !46
  %12 = icmp eq i32 %11, 0
  br i1 %12, label %13, label %14

13:                                               ; preds = %9
  tail call void (ptr, i32, ptr, ptr, ptr, ...) @IDAProcessError(ptr noundef nonnull %0, i32 noundef -101, ptr noundef nonnull @.str, ptr noundef nonnull @.str.14, ptr noundef nonnull @.str.7) #9
  br label %46

14:                                               ; preds = %9
  %15 = getelementptr inbounds nuw i8, ptr %0, i64 1816
  %16 = load ptr, ptr %15, align 8, !tbaa !3
  %17 = load double, ptr %16, align 8, !tbaa !62
  %18 = fcmp olt double %3, %17
  br i1 %18, label %23, label %19

19:                                               ; preds = %14
  %20 = getelementptr inbounds nuw i8, ptr %16, i64 8
  %21 = load double, ptr %20, align 8, !tbaa !61
  %22 = fcmp ogt double %3, %21
  br i1 %22, label %23, label %24

23:                                               ; preds = %19, %14
  tail call void (ptr, i32, ptr, ptr, ptr, ...) @IDAProcessError(ptr noundef nonnull %0, i32 noundef -104, ptr noundef nonnull @.str, ptr noundef nonnull @.str.14, ptr noundef nonnull @.str.15) #9
  br label %46

24:                                               ; preds = %19
  %25 = getelementptr inbounds nuw i8, ptr %16, i64 40
  %26 = load i32, ptr %25, align 8, !tbaa !41
  %.not = icmp slt i32 %1, %26
  br i1 %.not, label %28, label %27

27:                                               ; preds = %24
  tail call void (ptr, i32, ptr, ptr, ptr, ...) @IDAProcessError(ptr noundef nonnull %0, i32 noundef -22, ptr noundef nonnull @.str, ptr noundef nonnull @.str.14, ptr noundef nonnull @.str.16) #9
  br label %46

28:                                               ; preds = %24
  %29 = getelementptr inbounds nuw i8, ptr %16, i64 32
  br label %.lr.ph

.lr.ph:                                           ; preds = %.lr.ph, %28
  %.039.sink.in = phi ptr [ %32, %.lr.ph ], [ %29, %28 ]
  %.039.sink = load ptr, ptr %.039.sink.in, align 8, !tbaa !122, !nonnull !181, !noundef !181
  %30 = load i32, ptr %.039.sink, align 8, !tbaa !180
  %31 = icmp eq i32 %1, %30
  %32 = getelementptr inbounds nuw i8, ptr %.039.sink, i64 128
  br i1 %31, label %._crit_edge, label %.lr.ph

._crit_edge:                                      ; preds = %.lr.ph
  %33 = getelementptr inbounds nuw i8, ptr %.039.sink, i64 16
  %34 = load ptr, ptr %33, align 8, !tbaa !123
  %35 = tail call i32 @IDAInit(ptr noundef %34, ptr noundef nonnull @IDAAres, double noundef %3, ptr noundef %4, ptr noundef %5) #9
  %.not45 = icmp eq i32 %35, 0
  br i1 %.not45, label %36, label %46

36:                                               ; preds = %._crit_edge
  %37 = getelementptr inbounds nuw i8, ptr %.039.sink, i64 32
  store ptr %2, ptr %37, align 8, !tbaa !182
  %38 = getelementptr inbounds nuw i8, ptr %.039.sink, i64 24
  store i32 0, ptr %38, align 8, !tbaa !183
  %39 = getelementptr inbounds nuw i8, ptr %.039.sink, i64 8
  store double %3, ptr %39, align 8, !tbaa !184
  %40 = tail call ptr @N_VClone(ptr noundef %4) #9
  %41 = getelementptr inbounds nuw i8, ptr %.039.sink, i64 112
  store ptr %40, ptr %41, align 8, !tbaa !127
  %42 = tail call ptr @N_VClone(ptr noundef %4) #9
  %43 = getelementptr inbounds nuw i8, ptr %.039.sink, i64 120
  store ptr %42, ptr %43, align 8, !tbaa !128
  %44 = load ptr, ptr %41, align 8, !tbaa !127
  tail call void @N_VScale(double noundef 1.000000e+00, ptr noundef %4, ptr noundef %44) #9
  %45 = load ptr, ptr %43, align 8, !tbaa !128
  tail call void @N_VScale(double noundef 1.000000e+00, ptr noundef %5, ptr noundef %45) #9
  br label %46

46:                                               ; preds = %._crit_edge, %36, %27, %23, %13, %8
  %.0 = phi i32 [ -20, %8 ], [ -101, %13 ], [ -104, %23 ], [ -22, %27 ], [ 0, %36 ], [ %35, %._crit_edge ]
  ret i32 %.0
}